target datalayout = "e-m:e-p270:32:32-p271:32:32-p272:64:64-i64:64-i128:128-f80:128-n8:16:32:64-S128"
target triple = "x86_64-pc-linux-gnu"

%struct._zend_executor_globals = type { %struct._zval_struct, %struct._zval_struct, [32 x ptr], ptr, ptr, %struct._zend_array, %struct._zend_array, ptr, i32, i8, %struct._zval_struct, i32, ptr, ptr, ptr, ptr, ptr, ptr, i64, ptr, ptr, i32, ptr, i32, i64, i32, i32, i32, i8, i8, %struct.zend_atomic_bool_s, %struct.zend_atomic_bool_s, ptr, i64, ptr, ptr, %struct._zend_array, %struct._zend_array, i32, i8, %struct._zval_struct, %struct._zval_struct, %struct._zend_stack, %struct._zend_stack, %struct._zend_stack, ptr, i32, i32, i64, ptr, ptr, ptr, %struct._zend_objects_store, %struct._zend_lazy_objects_store, ptr, ptr, ptr, [3 x %struct._zend_op], ptr, i8, i8, i64, i32, i32, ptr, [16 x %struct._HashTableIterator], ptr, %union._zend_function, %struct._zend_op, %struct._zend_array, i64, %struct.zend_get_gc_buffer, ptr, ptr, ptr, i64, i8, i32, ptr, ptr, i64, %struct._zend_call_stack, i64, i64, %struct._zend_strtod_state, [6 x ptr] }
%struct.zend_atomic_bool_s = type { i8 }
%struct._zval_struct = type { %union._zend_value, %union.anon.9, %union.anon.12 }
%union._zend_value = type { i64 }
%union.anon.9 = type { i32 }
%union.anon.12 = type { i32 }
%struct._zend_stack = type { i32, i32, i32, ptr }
%struct._zend_objects_store = type { ptr, i32, i32, i32 }
%struct._zend_lazy_objects_store = type { %struct._zend_array }
%struct._HashTableIterator = type { ptr, i32, i32 }
%union._zend_function = type { %struct._zend_op_array }
%struct._zend_op_array = type { i8, [3 x i8], i32, ptr, ptr, ptr, i32, i32, ptr, ptr, ptr, ptr, i32, ptr, i32, i32, i32, ptr, ptr, ptr, ptr, ptr, i32, i32, ptr, ptr, ptr, i32, i32, i32, i32, ptr, ptr, [6 x ptr] }
%struct._zend_op = type { ptr, %union._znode_op, %union._znode_op, %union._znode_op, i32, i32, i8, i8, i8, i8 }
%union._znode_op = type { i32 }
%struct._zend_array = type { %struct._zend_refcounted_h, %union.anon.1, i32, %union.anon.2, i32, i32, i32, i32, i64, ptr }
%struct._zend_refcounted_h = type { i32, %union.anon.0 }
%union.anon.0 = type { i32 }
%union.anon.1 = type { i32 }
%union.anon.2 = type { ptr }
%struct.zend_get_gc_buffer = type { ptr, ptr, ptr }
%struct._zend_call_stack = type { ptr, i64 }
%struct._zend_strtod_state = type { [8 x ptr], ptr, ptr }
%struct._zend_class_entry = type { i8, ptr, %union.anon, i32, i32, i32, i32, ptr, ptr, ptr, %struct._zend_array, %struct._zend_array, %struct._zend_array, ptr, ptr, ptr, ptr, ptr, ptr, ptr, ptr, ptr, ptr, ptr, ptr, ptr, ptr, ptr, ptr, ptr, ptr, ptr, %union.anon.3, ptr, ptr, ptr, ptr, i32, i32, i32, i32, %union.anon.4, ptr, ptr, ptr, ptr, i32, ptr, ptr, %union.anon.5 }
%union.anon = type { ptr }
%union.anon.3 = type { ptr }
%union.anon.4 = type { ptr }
%union.anon.5 = type { %struct.anon.6 }
%struct.anon.6 = type { ptr, i32, i32 }
%struct._zend_object = type { %struct._zend_refcounted_h, i32, i32, ptr, ptr, ptr, [1 x %struct._zval_struct] }
%struct._zend_string = type { %struct._zend_refcounted_h, i64, i64, [1 x i8] }

@reflection_exception_ptr = dso_local global ptr null, align 8
@executor_globals = external global %struct._zend_executor_globals, align 8
@zend_known_strings = external global ptr, align 8
@.str.236 = private unnamed_addr constant [38 x i8] c"Cannot set read-only property %s::$%s\00", align 1

; Function Attrs: alwaysinline nounwind uwtable
define internal zeroext i1 @zend_string_equal_content(ptr noundef %0, ptr noundef %1) #4 {
  %3 = alloca ptr, align 8
  %4 = alloca ptr, align 8
  store ptr %0, ptr %3, align 8, !tbaa !38
  store ptr %1, ptr %4, align 8, !tbaa !38
  %5 = load ptr, ptr %3, align 8, !tbaa !38
  %6 = getelementptr inbounds nuw %struct._zend_string, ptr %5, i32 0, i32 2
  %7 = load i64, ptr %6, align 8, !tbaa !82
  %8 = load ptr, ptr %4, align 8, !tbaa !38
  %9 = getelementptr inbounds nuw %struct._zend_string, ptr %8, i32 0, i32 2
  %10 = load i64, ptr %9, align 8, !tbaa !82
  %11 = icmp eq i64 %7, %10
  br i1 %11, label %12, label %16

12:                                               ; preds = %2
  %13 = load ptr, ptr %3, align 8, !tbaa !38
  %14 = load ptr, ptr %4, align 8, !tbaa !38
  %15 = call zeroext i1 @zend_string_equal_val(ptr noundef %13, ptr noundef %14)
  br label %16

16:                                               ; preds = %12, %2
  %17 = phi i1 [ false, %2 ], [ %15, %12 ]
  ret i1 %17
}

; Function Attrs: alwaysinline nounwind uwtable
define internal zeroext i1 @zend_string_equals(ptr noundef %0, ptr noundef %1) #4 {
  %3 = alloca ptr, align 8
  %4 = alloca ptr, align 8
  store ptr %0, ptr %3, align 8, !tbaa !38
  store ptr %1, ptr %4, align 8, !tbaa !38
  %5 = load ptr, ptr %3, align 8, !tbaa !38
  %6 = load ptr, ptr %4, align 8, !tbaa !38
  %7 = icmp eq ptr %5, %6
  br i1 %7, label %12, label %8

8:                                                ; preds = %2
  %9 = load ptr, ptr %3, align 8, !tbaa !38
  %10 = load ptr, ptr %4, align 8, !tbaa !38
  %11 = call zeroext i1 @zend_string_equal_content(ptr noundef %9, ptr noundef %10)
  br label %12

12:                                               ; preds = %8, %2
  %13 = phi i1 [ true, %2 ], [ %11, %8 ]
  ret i1 %13
}

; Function Attrs: alwaysinline nounwind uwtable
define internal zeroext i1 @zend_hash_exists(ptr noundef %0, ptr noundef %1) #4 {
  %3 = alloca ptr, align 8
  %4 = alloca ptr, align 8
  store ptr %0, ptr %3, align 8, !tbaa !73
  store ptr %1, ptr %4, align 8, !tbaa !38
  %5 = load ptr, ptr %3, align 8, !tbaa !73
  %6 = load ptr, ptr %4, align 8, !tbaa !38
  %7 = call ptr @zend_hash_find(ptr noundef %5, ptr noundef %6)
  %8 = icmp ne ptr %7, null
  ret i1 %8
}

; Function Attrs: nounwind uwtable
define internal ptr @_reflection_write_property(ptr noundef %0, ptr noundef %1, ptr noundef %2, ptr noundef %3) #0 {
  %5 = alloca ptr, align 8
  %6 = alloca ptr, align 8
  %7 = alloca ptr, align 8
  %8 = alloca ptr, align 8
  %9 = alloca ptr, align 8
  store ptr %0, ptr %6, align 8, !tbaa !39
  store ptr %1, ptr %7, align 8, !tbaa !38
  store ptr %2, ptr %8, align 8, !tbaa !9
  store ptr %3, ptr %9, align 8, !tbaa !30
  %10 = load ptr, ptr %6, align 8, !tbaa !39
  %11 = getelementptr inbounds nuw %struct._zend_object, ptr %10, i32 0, i32 3
  %12 = load ptr, ptr %11, align 8, !tbaa !41
  %13 = getelementptr inbounds nuw %struct._zend_class_entry, ptr %12, i32 0, i32 11
  %14 = load ptr, ptr %7, align 8, !tbaa !38
  %15 = call zeroext i1 @zend_hash_exists(ptr noundef %13, ptr noundef %14)
  br i1 %15, label %16, label %41

16:                                               ; preds = %4
  %17 = load ptr, ptr %7, align 8, !tbaa !38
  %18 = load ptr, ptr @zend_known_strings, align 8, !tbaa !75
  %19 = getelementptr inbounds ptr, ptr %18, i64 45
  %20 = load ptr, ptr %19, align 8, !tbaa !38
  %21 = call zeroext i1 @zend_string_equals(ptr noundef %17, ptr noundef %20)
  br i1 %21, label %28, label %22

22:                                               ; preds = %16
  %23 = load ptr, ptr %7, align 8, !tbaa !38
  %24 = load ptr, ptr @zend_known_strings, align 8, !tbaa !75
  %25 = getelementptr inbounds ptr, ptr %24, i64 3
  %26 = load ptr, ptr %25, align 8, !tbaa !38
  %27 = call zeroext i1 @zend_string_equals(ptr noundef %23, ptr noundef %26)
  br i1 %27, label %28, label %41

28:                                               ; preds = %22, %16
  %29 = load ptr, ptr @reflection_exception_ptr, align 8, !tbaa !4
  %30 = load ptr, ptr %6, align 8, !tbaa !39
  %31 = getelementptr inbounds nuw %struct._zend_object, ptr %30, i32 0, i32 3
  %32 = load ptr, ptr %31, align 8, !tbaa !41
  %33 = getelementptr inbounds nuw %struct._zend_class_entry, ptr %32, i32 0, i32 1
  %34 = load ptr, ptr %33, align 8, !tbaa !37
  %35 = getelementptr inbounds nuw %struct._zend_string, ptr %34, i32 0, i32 3
  %36 = getelementptr inbounds [1 x i8], ptr %35, i64 0, i64 0
  %37 = load ptr, ptr %7, align 8, !tbaa !38
  %38 = getelementptr inbounds nuw %struct._zend_string, ptr %37, i32 0, i32 3
  %39 = getelementptr inbounds [1 x i8], ptr %38, i64 0, i64 0
  %40 = call ptr (ptr, i64, ptr, ...) @zend_throw_exception_ex(ptr noundef %29, i64 noundef 0, ptr noundef @.str.236, ptr noundef %36, ptr noundef %39)
  store ptr @executor_globals, ptr %5, align 8
  br label %47

41:                                               ; preds = %22, %4
  %42 = load ptr, ptr %6, align 8, !tbaa !39
  %43 = load ptr, ptr %7, align 8, !tbaa !38
  %44 = load ptr, ptr %8, align 8, !tbaa !9
  %45 = load ptr, ptr %9, align 8, !tbaa !30
  %46 = call ptr @zend_std_write_property(ptr noundef %42, ptr noundef %43, ptr noundef %44, ptr noundef %45)
  store ptr %46, ptr %5, align 8
  br label %47

47:                                               ; preds = %41, %28
  %48 = load ptr, ptr %5, align 8
  ret ptr %48
}