; Function Attrs: nounwind uwtable
define internal ptr @_reflection_write_property(ptr noundef %0, ptr noundef %1, ptr noundef %2, ptr noundef %3) #0 {
  %5 = getelementptr inbounds nuw i8, ptr %0, i64 16
  %6 = load ptr, ptr %5, align 8, !tbaa !34
  %7 = getelementptr inbounds nuw i8, ptr %6, i64 120
  %8 = tail call ptr @zend_hash_find(ptr noundef nonnull %7, ptr noundef %1) #13
  %.not = icmp eq ptr %8, null
  br i1 %.not, label %zend_string_equals.exit.thread14, label %9

9:                                                ; preds = %4
  %10 = load ptr, ptr @zend_known_strings, align 8, !tbaa !66
  %11 = getelementptr inbounds nuw i8, ptr %10, i64 360
  %12 = load ptr, ptr %11, align 8, !tbaa !68
  %13 = icmp eq ptr %1, %12
  br i1 %13, label %zend_string_equals.exit11.thread, label %14

14:                                               ; preds = %9
  %15 = getelementptr inbounds nuw i8, ptr %1, i64 16
  %16 = load i64, ptr %15, align 8, !tbaa !76
  %17 = getelementptr inbounds nuw i8, ptr %12, i64 16
  %18 = load i64, ptr %17, align 8, !tbaa !76
  %19 = icmp eq i64 %16, %18
  br i1 %19, label %zend_string_equals.exit11, label %zend_string_equals.exit11.thread13

zend_string_equals.exit11:                        ; preds = %14
  %20 = tail call zeroext i1 @zend_string_equal_val(ptr noundef nonnull %1, ptr noundef nonnull %12) #13
  br i1 %20, label %zend_string_equals.exit11.thread, label %zend_string_equals.exit11.zend_string_equals.exit11.thread13_crit_edge

zend_string_equals.exit11.zend_string_equals.exit11.thread13_crit_edge: ; preds = %zend_string_equals.exit11
  %.pre = load ptr, ptr @zend_known_strings, align 8, !tbaa !66
  br label %zend_string_equals.exit11.thread13

zend_string_equals.exit11.thread13:               ; preds = %zend_string_equals.exit11.zend_string_equals.exit11.thread13_crit_edge, %14
  %21 = phi ptr [ %.pre, %zend_string_equals.exit11.zend_string_equals.exit11.thread13_crit_edge ], [ %10, %14 ]
  %22 = getelementptr inbounds nuw i8, ptr %21, i64 24
  %23 = load ptr, ptr %22, align 8, !tbaa !68
  %24 = icmp eq ptr %1, %23
  br i1 %24, label %zend_string_equals.exit11.thread, label %25

25:                                               ; preds = %zend_string_equals.exit11.thread13
  %26 = load i64, ptr %15, align 8, !tbaa !76
  %27 = getelementptr inbounds nuw i8, ptr %23, i64 16
  %28 = load i64, ptr %27, align 8, !tbaa !76
  %29 = icmp eq i64 %26, %28
  br i1 %29, label %zend_string_equals.exit, label %zend_string_equals.exit.thread14

zend_string_equals.exit:                          ; preds = %25
  %30 = tail call zeroext i1 @zend_string_equal_val(ptr noundef nonnull %1, ptr noundef nonnull %23) #13
  br i1 %30, label %zend_string_equals.exit11.thread, label %zend_string_equals.exit.thread14

zend_string_equals.exit11.thread:                 ; preds = %zend_string_equals.exit11.thread13, %9, %zend_string_equals.exit, %zend_string_equals.exit11
  %31 = load ptr, ptr @reflection_exception_ptr, align 8, !tbaa !38
  %32 = load ptr, ptr %5, align 8, !tbaa !34
  %33 = getelementptr inbounds nuw i8, ptr %32, i64 8
  %34 = load ptr, ptr %33, align 8, !tbaa !36
  %35 = getelementptr inbounds nuw i8, ptr %34, i64 24
  %36 = getelementptr inbounds nuw i8, ptr %1, i64 24
  %37 = tail call ptr (ptr, i64, ptr, ...) @zend_throw_exception_ex(ptr noundef %31, i64 noundef 0, ptr noundef nonnull @.str.236, ptr noundef nonnull %35, ptr noundef nonnull %36) #13
  br label %39

zend_string_equals.exit.thread14:                 ; preds = %25, %zend_string_equals.exit, %4
  %38 = tail call ptr @zend_std_write_property(ptr noundef nonnull %0, ptr noundef %1, ptr noundef %2, ptr noundef %3) #13
  br label %39

39:                                               ; preds = %zend_string_equals.exit.thread14, %zend_string_equals.exit11.thread
  %.0 = phi ptr [ @executor_globals, %zend_string_equals.exit11.thread ], [ %38, %zend_string_equals.exit.thread14 ]
  ret ptr %.0
}